; Function Attrs: mustprogress nofree norecurse nosync nounwind willreturn memory(argmem: write) uwtable
define dso_local void @_ZN4llvm3sys4path3endENS_9StringRefE(ptr dead_on_unwind noalias nocapture writable writeonly sret(%"class.llvm::sys::path::const_iterator") align 8 %0, ptr %1, i64 %2) local_unnamed_addr #2 {
  %4 = getelementptr inbounds i8, ptr %0, i64 16
  tail call void @llvm.memset.p0.i64(ptr noundef nonnull align 8 dereferenceable(44) %4, i8 0, i64 28, i1 false)
  store ptr %1, ptr %0, align 8
  %.sroa.2.0..sroa_idx = getelementptr inbounds i8, ptr %0, i64 8
  store i64 %2, ptr %.sroa.2.0..sroa_idx, align 8
  %5 = getelementptr inbounds nuw i8, ptr %0, i64 32
  store i64 %2, ptr %5, align 8
  ret void
}